target datalayout = "e-m:e-p270:32:32-p271:32:32-p272:64:64-i64:64-i128:128-f80:128-n8:16:32:64-S128"
target triple = "x86_64-pc-linux-gnu"

@.str.1 = private unnamed_addr constant [101 x i8] c"generated/home/dtcxzyw/WorkSpace/Projects/compilers/llvm-opt-benchmark/bench/hdf5/hdf5/src/H5Plapl.c\00", align 1
@H5E_PLIST_g = external global i64, align 8
@__func__.H5P__lacc_elink_fapl_dec = private unnamed_addr constant [25 x i8] c"H5P__lacc_elink_fapl_dec\00", align 1
@H5E_CANTDECODE_g = external global i64, align 8
@.str.30 = private unnamed_addr constant [22 x i8] c"can't decode property\00", align 1

; Function Attrs: nounwind uwtable
define internal i32 @H5P__lacc_elink_fapl_dec(ptr noundef %0, ptr noundef %1) #0 {
  %3 = alloca ptr, align 8
  %4 = alloca ptr, align 8
  %5 = alloca ptr, align 8
  %6 = alloca ptr, align 8
  %7 = alloca i8, align 1
  %8 = alloca i32, align 4
  %9 = alloca i8, align 1
  %10 = alloca i64, align 8
  %11 = alloca i32, align 4
  %12 = alloca i64, align 8
  %13 = alloca i64, align 8
  store ptr %0, ptr %3, align 8
  store ptr %1, ptr %4, align 8
  %14 = load ptr, ptr %4, align 8
  store ptr %14, ptr %5, align 8
  %15 = load ptr, ptr %3, align 8
  store ptr %15, ptr %6, align 8
  store i32 0, ptr %8, align 4
  store i8 0, ptr %9, align 1
  %16 = load ptr, ptr %6, align 8
  %17 = load ptr, ptr %16, align 8
  %18 = getelementptr inbounds i8, ptr %17, i32 1
  store ptr %18, ptr %16, align 8
  %19 = load i8, ptr %17, align 1
  %20 = icmp ne i8 %19, 0
  %21 = zext i1 %20 to i8
  store i8 %21, ptr %7, align 1
  %22 = load i8, ptr %7, align 1
  %23 = trunc i8 %22 to i1
  br i1 %23, label %24, label %86

24:                                               ; preds = %2
  store i64 0, ptr %10, align 8
  %25 = load ptr, ptr %6, align 8
  %26 = load ptr, ptr %25, align 8
  %27 = getelementptr inbounds i8, ptr %26, i32 1
  store ptr %27, ptr %25, align 8
  %28 = load i8, ptr %26, align 1
  %29 = zext i8 %28 to i32
  store i32 %29, ptr %11, align 4
  br label %30

30:                                               ; preds = %24
  store i64 0, ptr %12, align 8
  %31 = load i32, ptr %11, align 4
  %32 = load ptr, ptr %6, align 8
  %33 = load ptr, ptr %32, align 8
  %34 = zext i32 %31 to i64
  %35 = getelementptr inbounds i8, ptr %33, i64 %34
  store ptr %35, ptr %32, align 8
  store i64 0, ptr %13, align 8
  br label %36

36:                                               ; preds = %50, %30
  %37 = load i64, ptr %13, align 8
  %38 = load i32, ptr %11, align 4
  %39 = zext i32 %38 to i64
  %40 = icmp ult i64 %37, %39
  br i1 %40, label %41, label %53

41:                                               ; preds = %36
  %42 = load i64, ptr %12, align 8
  %43 = shl i64 %42, 8
  %44 = load ptr, ptr %6, align 8
  %45 = load ptr, ptr %44, align 8
  %46 = getelementptr inbounds i8, ptr %45, i32 -1
  store ptr %46, ptr %44, align 8
  %47 = load i8, ptr %46, align 1
  %48 = zext i8 %47 to i64
  %49 = or i64 %43, %48
  store i64 %49, ptr %12, align 8
  br label %50

50:                                               ; preds = %41
  %51 = load i64, ptr %13, align 8
  %52 = add i64 %51, 1
  store i64 %52, ptr %13, align 8
  br label %36

53:                                               ; preds = %36
  %54 = load i32, ptr %11, align 4
  %55 = load ptr, ptr %6, align 8
  %56 = load ptr, ptr %55, align 8
  %57 = zext i32 %54 to i64
  %58 = getelementptr inbounds i8, ptr %56, i64 %57
  store ptr %58, ptr %55, align 8
  br label %59

59:                                               ; preds = %53
  %60 = load i64, ptr %12, align 8
  store i64 %60, ptr %10, align 8
  %61 = load ptr, ptr %6, align 8
  %62 = load ptr, ptr %61, align 8
  %63 = call i64 @H5P__decode(ptr noundef %62)
  %64 = load ptr, ptr %5, align 8
  store i64 %63, ptr %64, align 8
  %65 = icmp slt i64 %63, 0
  br i1 %65, label %66, label %81

66:                                               ; preds = %59
  br label %67

67:                                               ; preds = %66
  br label %68

68:                                               ; preds = %67
  br label %69

69:                                               ; preds = %68
  %70 = load i64, ptr @H5E_PLIST_g, align 8
  %71 = load i64, ptr @H5E_CANTDECODE_g, align 8
  %72 = call i32 (ptr, ptr, i32, i64, i64, ptr, ...) @H5E_printf_stack(ptr noundef @.str.1, ptr noundef @__func__.H5P__lacc_elink_fapl_dec, i32 noundef 423, i64 noundef %70, i64 noundef %71, ptr noundef @.str.30)
  br label %73

73:                                               ; preds = %69
  store i8 1, ptr %9, align 1
  %74 = load i8, ptr %9, align 1
  %75 = trunc i8 %74 to i1
  %76 = zext i1 %75 to i8
  store i8 %76, ptr %9, align 1
  br label %77

77:                                               ; preds = %73
  br label %78

78:                                               ; preds = %77
  store i32 -1, ptr %8, align 4
  br label %89

79:                                               ; No predecessors!
  br label %80

80:                                               ; preds = %79
  br label %81

81:                                               ; preds = %80, %59
  %82 = load i64, ptr %10, align 8
  %83 = load ptr, ptr %6, align 8
  %84 = load ptr, ptr %83, align 8
  %85 = getelementptr inbounds i8, ptr %84, i64 %82
  store ptr %85, ptr %83, align 8
  br label %88

86:                                               ; preds = %2
  %87 = load ptr, ptr %5, align 8
  store i64 0, ptr %87, align 8
  br label %88

88:                                               ; preds = %86, %81
  br label %89

89:                                               ; preds = %88, %78
  %90 = load i32, ptr %8, align 4
  ret i32 %90
}