; Function Attrs: nounwind uwtable
define internal range(i32 -1, 1) i32 @H5P__lacc_elink_fapl_dec(ptr noundef captures(none) %0, ptr noundef writeonly captures(none) %1) #0 {
  %3 = load ptr, ptr %0, align 8
  %4 = getelementptr inbounds nuw i8, ptr %3, i64 1
  store ptr %4, ptr %0, align 8
  %5 = load i8, ptr %3, align 1
  %.not = icmp eq i8 %5, 0
  br i1 %.not, label %29, label %6

6:                                                ; preds = %2
  %7 = getelementptr inbounds nuw i8, ptr %3, i64 2
  store ptr %7, ptr %0, align 8
  %8 = load i8, ptr %4, align 1
  %9 = zext i8 %8 to i64
  %10 = getelementptr inbounds nuw i8, ptr %7, i64 %9
  %.not26 = icmp eq i8 %8, 0
  br i1 %.not26, label %._crit_edge, label %.lr.ph

.lr.ph:                                           ; preds = %6, %.lr.ph
  %11 = phi ptr [ %13, %.lr.ph ], [ %10, %6 ]
  %.025 = phi i64 [ %17, %.lr.ph ], [ 0, %6 ]
  %.02124 = phi i64 [ %16, %.lr.ph ], [ 0, %6 ]
  %12 = shl i64 %.02124, 8
  %13 = getelementptr inbounds i8, ptr %11, i64 -1
  store ptr %13, ptr %0, align 8
  %14 = load i8, ptr %13, align 1
  %15 = zext i8 %14 to i64
  %16 = or disjoint i64 %12, %15
  %17 = add nuw nsw i64 %.025, 1
  %exitcond.not = icmp eq i64 %17, %9
  br i1 %exitcond.not, label %._crit_edge, label %.lr.ph

._crit_edge:                                      ; preds = %.lr.ph, %6
  %18 = phi ptr [ %10, %6 ], [ %13, %.lr.ph ]
  %.021.lcssa = phi i64 [ 0, %6 ], [ %16, %.lr.ph ]
  %19 = getelementptr inbounds nuw i8, ptr %18, i64 %9
  store ptr %19, ptr %0, align 8
  %20 = tail call i64 @H5P__decode(ptr noundef %19) #8
  store i64 %20, ptr %1, align 8
  %21 = icmp slt i64 %20, 0
  br i1 %21, label %22, label %26

22:                                               ; preds = %._crit_edge
  %23 = load i64, ptr @H5E_PLIST_g, align 8
  %24 = load i64, ptr @H5E_CANTDECODE_g, align 8
  %25 = tail call i32 (ptr, ptr, i32, i64, i64, ptr, ...) @H5E_printf_stack(ptr noundef nonnull @.str.1, ptr noundef nonnull @__func__.H5P__lacc_elink_fapl_dec, i32 noundef 423, i64 noundef %23, i64 noundef %24, ptr noundef nonnull @.str.30) #8
  br label %30

26:                                               ; preds = %._crit_edge
  %27 = load ptr, ptr %0, align 8
  %28 = getelementptr inbounds i8, ptr %27, i64 %.021.lcssa
  store ptr %28, ptr %0, align 8
  br label %30

29:                                               ; preds = %2
  store i64 0, ptr %1, align 8
  br label %30

30:                                               ; preds = %26, %29, %22
  %.022 = phi i32 [ -1, %22 ], [ 0, %26 ], [ 0, %29 ]
  ret i32 %.022
}